target datalayout = "e-m:e-p270:32:32-p271:32:32-p272:64:64-i64:64-i128:128-f80:128-n8:16:32:64-S128"
target triple = "x86_64-pc-linux-gnu"

%"class.llvm::StringRef" = type { ptr, i64 }
%"class.llvm::APInt" = type <{ %union.anon.274, i32, [4 x i8] }>
%union.anon.274 = type { i64 }
%"class.llvm::AsmToken" = type { i32, %"class.llvm::StringRef", %"class.llvm::APInt" }

; Function Attrs: mustprogress nounwind uwtable
define linkonce_odr hidden noundef zeroext i1 @_ZNK4llvm8AsmToken5isNotENS0_9TokenKindE(ptr noundef nonnull align 8 dereferenceable(40) %0, i32 noundef %1) #0 comdat align 2 {
  %3 = alloca ptr, align 8
  %4 = alloca i32, align 4
  store ptr %0, ptr %3, align 8
  store i32 %1, ptr %4, align 4
  %5 = load ptr, ptr %3, align 8
  %6 = getelementptr inbounds nuw %"class.llvm::AsmToken", ptr %5, i32 0, i32 0
  %7 = load i32, ptr %6, align 8
  %8 = load i32, ptr %4, align 4
  %9 = icmp ne i32 %7, %8
  ret i1 %9
}

; Function Attrs: mustprogress nounwind uwtable
define internal noundef zeroext i1 @_ZN12_GLOBAL__N_110MasmParser19parseScalarInstListEjRN4llvm15SmallVectorImplIPKNS1_6MCExprEEENS1_8AsmToken9TokenKindE(ptr noundef nonnull align 8 dereferenceable(1144) %0, i32 noundef %1, ptr noundef nonnull align 8 dereferenceable(16) %2, i32 noundef %3) #0 align 2 {
  %5 = alloca ptr, align 8
  %6 = alloca i32, align 4
  %7 = alloca ptr, align 8
  %8 = alloca i32, align 4
  store ptr %0, ptr %5, align 8
  store i32 %1, ptr %6, align 4
  store ptr %2, ptr %7, align 8
  store i32 %3, ptr %8, align 4
  %9 = load ptr, ptr %5, align 8
  br label %10

10:                                               ; preds = %30, %4
  %11 = call noundef nonnull align 8 dereferenceable(40) ptr @_ZNK4llvm11MCAsmParser6getTokEv(ptr noundef nonnull align 8 dereferenceable(34) %9)
  %12 = load i32, ptr %8, align 4
  %13 = call noundef zeroext i1 @_ZNK4llvm8AsmToken5isNotENS0_9TokenKindE(ptr noundef nonnull align 8 dereferenceable(40) %11, i32 noundef %12)
  br i1 %13, label %14, label %22

14:                                               ; preds = %10
  %15 = load i32, ptr %8, align 4
  %16 = icmp ne i32 %15, 43
  br i1 %16, label %20, label %17

17:                                               ; preds = %14
  %18 = call noundef nonnull align 8 dereferenceable(40) ptr @_ZNK4llvm11MCAsmParser6getTokEv(ptr noundef nonnull align 8 dereferenceable(34) %9)
  %19 = call noundef zeroext i1 @_ZNK4llvm8AsmToken5isNotENS0_9TokenKindE(ptr noundef nonnull align 8 dereferenceable(40) %18, i32 noundef 45)
  br label %20

20:                                               ; preds = %17, %14
  %21 = phi i1 [ true, %14 ], [ %19, %17 ]
  br label %22

22:                                               ; preds = %20, %10
  %23 = phi i1 [ false, %10 ], [ %21, %20 ]
  br i1 %23, label %24, label %32

24:                                               ; preds = %22
  %25 = load i32, ptr %6, align 4
  %26 = load ptr, ptr %7, align 8
  %27 = call noundef zeroext i1 @_ZN12_GLOBAL__N_110MasmParser22parseScalarInitializerEjRN4llvm15SmallVectorImplIPKNS1_6MCExprEEEj(ptr noundef nonnull align 8 dereferenceable(1144) %9, i32 noundef %25, ptr noundef nonnull align 8 dereferenceable(16) %26, i32 noundef 0)
  %28 = call noundef zeroext i1 @_ZN4llvm11MCAsmParser18parseOptionalTokenENS_8AsmToken9TokenKindE(ptr noundef nonnull align 8 dereferenceable(34) %9, i32 noundef 26)
  br i1 %28, label %30, label %29

29:                                               ; preds = %24
  br label %32

30:                                               ; preds = %24
  %31 = call noundef zeroext i1 @_ZN4llvm11MCAsmParser18parseOptionalTokenENS_8AsmToken9TokenKindE(ptr noundef nonnull align 8 dereferenceable(34) %9, i32 noundef 9)
  br label %10, !llvm.loop !146

32:                                               ; preds = %29, %22
  ret i1 false
}