; Function Attrs: mustprogress nounwind uwtable
define internal fastcc void @_ZN12_GLOBAL__N_110MasmParser19parseScalarInstListEjRN4llvm15SmallVectorImplIPKNS1_6MCExprEEENS1_8AsmToken9TokenKindE(ptr noundef nonnull align 8 dereferenceable(1144) %0, i32 noundef %1, ptr noundef nonnull align 8 dereferenceable(16) %2, i32 noundef range(i32 9, 44) %3) unnamed_addr #0 align 2 {
  %5 = tail call noundef nonnull align 8 dereferenceable(40) ptr @_ZNK4llvm11MCAsmParser6getTokEv(ptr noundef nonnull align 8 dereferenceable(34) %0) #24
  %6 = load i32, ptr %5, align 8
  %.not68 = icmp eq i32 %6, %3
  br i1 %.not68, label %.critedge, label %.lr.ph

.lr.ph:                                           ; preds = %4
  %.not = icmp eq i32 %3, 43
  br i1 %.not, label %.lr.ph.split.us, label %.critedge2

.lr.ph.split.us:                                  ; preds = %.lr.ph, %11
  %7 = tail call noundef nonnull align 8 dereferenceable(40) ptr @_ZNK4llvm11MCAsmParser6getTokEv(ptr noundef nonnull align 8 dereferenceable(34) %0) #24
  %8 = load i32, ptr %7, align 8
  %.not7.us = icmp eq i32 %8, 45
  br i1 %.not7.us, label %.critedge, label %.critedge2.us

.critedge2.us:                                    ; preds = %.lr.ph.split.us
  %9 = tail call fastcc noundef zeroext i1 @_ZN12_GLOBAL__N_110MasmParser22parseScalarInitializerEjRN4llvm15SmallVectorImplIPKNS1_6MCExprEEEj(ptr noundef nonnull align 8 dereferenceable(1144) %0, i32 noundef %1, ptr noundef nonnull align 8 dereferenceable(16) %2, i32 noundef 0)
  %10 = tail call noundef zeroext i1 @_ZN4llvm11MCAsmParser18parseOptionalTokenENS_8AsmToken9TokenKindE(ptr noundef nonnull align 8 dereferenceable(34) %0, i32 noundef 26) #24
  br i1 %10, label %11, label %.critedge

11:                                               ; preds = %.critedge2.us
  %12 = tail call noundef zeroext i1 @_ZN4llvm11MCAsmParser18parseOptionalTokenENS_8AsmToken9TokenKindE(ptr noundef nonnull align 8 dereferenceable(34) %0, i32 noundef 9) #24
  %13 = tail call noundef nonnull align 8 dereferenceable(40) ptr @_ZNK4llvm11MCAsmParser6getTokEv(ptr noundef nonnull align 8 dereferenceable(34) %0) #24
  %14 = load i32, ptr %13, align 8
  %.not6.us = icmp eq i32 %14, 43
  br i1 %.not6.us, label %.critedge, label %.lr.ph.split.us, !llvm.loop !853

.critedge2:                                       ; preds = %.lr.ph, %17
  %15 = tail call fastcc noundef zeroext i1 @_ZN12_GLOBAL__N_110MasmParser22parseScalarInitializerEjRN4llvm15SmallVectorImplIPKNS1_6MCExprEEEj(ptr noundef nonnull align 8 dereferenceable(1144) %0, i32 noundef %1, ptr noundef nonnull align 8 dereferenceable(16) %2, i32 noundef 0)
  %16 = tail call noundef zeroext i1 @_ZN4llvm11MCAsmParser18parseOptionalTokenENS_8AsmToken9TokenKindE(ptr noundef nonnull align 8 dereferenceable(34) %0, i32 noundef 26) #24
  br i1 %16, label %17, label %.critedge

17:                                               ; preds = %.critedge2
  %18 = tail call noundef zeroext i1 @_ZN4llvm11MCAsmParser18parseOptionalTokenENS_8AsmToken9TokenKindE(ptr noundef nonnull align 8 dereferenceable(34) %0, i32 noundef 9) #24
  %19 = tail call noundef nonnull align 8 dereferenceable(40) ptr @_ZNK4llvm11MCAsmParser6getTokEv(ptr noundef nonnull align 8 dereferenceable(34) %0) #24
  %20 = load i32, ptr %19, align 8
  %.not6 = icmp eq i32 %20, %3
  br i1 %.not6, label %.critedge, label %.critedge2, !llvm.loop !853

.critedge:                                        ; preds = %.critedge2, %17, %.lr.ph.split.us, %.critedge2.us, %11, %4
  ret void
}